; Function Attrs: noinline nounwind uwtable
define internal range(i32 -2147483647, -2147483648) i32 @php_array_reverse_data_compare(ptr noundef %0, ptr noundef %1) #16 {
  %3 = tail call i32 @php_array_reverse_data_compare_unstable(ptr noundef %0, ptr noundef %1)
  %.not = icmp eq i32 %3, 0
  br i1 %.not, label %4, label %8, !prof !14

4:                                                ; preds = %2
  %5 = getelementptr i8, ptr %0, i64 12
  %.val = load i32, ptr %5, align 4, !tbaa !8
  %6 = getelementptr i8, ptr %1, i64 12
  %.val7 = load i32, ptr %6, align 4, !tbaa !8
  %7 = tail call fastcc i32 @stable_sort_fallback(i32 %.val, i32 %.val7)
  br label %8

8:                                                ; preds = %2, %4
  %.0 = phi i32 [ %7, %4 ], [ %3, %2 ]
  ret i32 %.0
}